; ModuleID = '60/1857.c'
source_filename = "60/1857.c"
target datalayout = "e-m:e-p270:32:32-p271:32:32-p272:64:64-i64:64-f80:128-n8:16:32:64-S128"
target triple = "x86_64-pc-linux-gnu"

@.str = private unnamed_addr constant [3 x i8] c"%d\00", align 1
@.str.1 = private unnamed_addr constant [6 x i8] c"empty\00", align 1
@.str.2 = private unnamed_addr constant [7 x i8] c"%d %d\0A\00", align 1

; Function Attrs: noinline nounwind uwtable
define dso_local i32 @main() #0 {
  %1 = alloca i32, align 4
  %2 = alloca i32, align 4
  %3 = alloca i32, align 4
  %4 = alloca i32, align 4
  %5 = alloca i32, align 4
  store i32 0, i32* %1, align 4
  %6 = call i32 (i8*, ...) @__isoc99_scanf(i8* getelementptr inbounds ([3 x i8], [3 x i8]* @.str, i64 0, i64 0), i32* %2)
  %7 = load i32, i32* %2, align 4
  %8 = icmp slt i32 %7, 5
  br i1 %8, label %9, label %11

9:                                                ; preds = %0
  %10 = call i32 (i8*, ...) @printf(i8* getelementptr inbounds ([6 x i8], [6 x i8]* @.str.1, i64 0, i64 0))
  br label %81

11:                                               ; preds = %0
  store i32 3, i32* %3, align 4
  br label %12

12:                                               ; preds = %77, %11
  %13 = load i32, i32* %3, align 4
  %14 = load i32, i32* %2, align 4
  %15 = sub nsw i32 %14, 2
  %16 = icmp sle i32 %13, %15
  br i1 %16, label %17, label %80

17:                                               ; preds = %12
  store i32 2, i32* %4, align 4
  br label %18

18:                                               ; preds = %32, %17
  %19 = load i32, i32* %4, align 4
  %20 = sitofp i32 %19 to double
  %21 = load i32, i32* %3, align 4
  %22 = sitofp i32 %21 to double
  %23 = call double @sqrt(double %22) #3
  %24 = fcmp ole double %20, %23
  br i1 %24, label %25, label %35

25:                                               ; preds = %18
  %26 = load i32, i32* %3, align 4
  %27 = load i32, i32* %4, align 4
  %28 = srem i32 %26, %27
  %29 = icmp eq i32 %28, 0
  br i1 %29, label %30, label %31

30:                                               ; preds = %25
  br label %35

31:                                               ; preds = %25
  br label %32

32:                                               ; preds = %31
  %33 = load i32, i32* %4, align 4
  %34 = add nsw i32 %33, 1
  store i32 %34, i32* %4, align 4
  br label %18

35:                                               ; preds = %30, %18
  %36 = load i32, i32* %4, align 4
  %37 = sitofp i32 %36 to double
  %38 = load i32, i32* %3, align 4
  %39 = sitofp i32 %38 to double
  %40 = call double @sqrt(double %39) #3
  %41 = fcmp ogt double %37, %40
  br i1 %41, label %42, label %76

42:                                               ; preds = %35
  store i32 2, i32* %5, align 4
  br label %43

43:                                               ; preds = %59, %42
  %44 = load i32, i32* %5, align 4
  %45 = sitofp i32 %44 to double
  %46 = load i32, i32* %3, align 4
  %47 = add nsw i32 %46, 2
  %48 = sitofp i32 %47 to double
  %49 = call double @sqrt(double %48) #3
  %50 = fcmp ole double %45, %49
  br i1 %50, label %51, label %62

51:                                               ; preds = %43
  %52 = load i32, i32* %3, align 4
  %53 = add nsw i32 %52, 2
  %54 = load i32, i32* %5, align 4
  %55 = srem i32 %53, %54
  %56 = icmp eq i32 %55, 0
  br i1 %56, label %57, label %58

57:                                               ; preds = %51
  br label %62

58:                                               ; preds = %51
  br label %59

59:                                               ; preds = %58
  %60 = load i32, i32* %5, align 4
  %61 = add nsw i32 %60, 1
  store i32 %61, i32* %5, align 4
  br label %43

62:                                               ; preds = %57, %43
  %63 = load i32, i32* %5, align 4
  %64 = sitofp i32 %63 to double
  %65 = load i32, i32* %3, align 4
  %66 = add nsw i32 %65, 2
  %67 = sitofp i32 %66 to double
  %68 = call double @sqrt(double %67) #3
  %69 = fcmp ogt double %64, %68
  br i1 %69, label %70, label %75

70:                                               ; preds = %62
  %71 = load i32, i32* %3, align 4
  %72 = load i32, i32* %3, align 4
  %73 = add nsw i32 %72, 2
  %74 = call i32 (i8*, ...) @printf(i8* getelementptr inbounds ([7 x i8], [7 x i8]* @.str.2, i64 0, i64 0), i32 %71, i32 %73)
  br label %75

75:                                               ; preds = %70, %62
  br label %76

76:                                               ; preds = %75, %35
  br label %77

77:                                               ; preds = %76
  %78 = load i32, i32* %3, align 4
  %79 = add nsw i32 %78, 1
  store i32 %79, i32* %3, align 4
  br label %12

80:                                               ; preds = %12
  br label %81

81:                                               ; preds = %80, %9
  %82 = load i32, i32* %1, align 4
  ret i32 %82
}

declare dso_local i32 @__isoc99_scanf(i8*, ...) #1

declare dso_local i32 @printf(i8*, ...) #1

; Function Attrs: nounwind
declare dso_local double @sqrt(double) #2


!llvm.module.flags = !{!0}
!llvm.ident = !{!1}

!0 = !{i32 1, !"wchar_size", i32 4}
!1 = !{!"clang version 10.0.0-4ubuntu1 "}
